target datalayout = "e-m:e-p270:32:32-p271:32:32-p272:64:64-i64:64-i128:128-f80:128-n8:16:32:64-S128"
target triple = "x86_64-pc-linux-gnu"

%struct.pm_location_t = type { ptr, ptr }
%struct.pm_string_t = type { ptr, i64, i32 }
%struct.pm_node = type { i16, i16, i32, %struct.pm_location_t }
%struct.pm_regular_expression_node = type { %struct.pm_node, %struct.pm_location_t, %struct.pm_location_t, %struct.pm_location_t, %struct.pm_string_t }
%struct.parse_regular_expression_error_data_t = type { ptr, ptr, ptr, i8 }

; Function Attrs: nounwind sspstrong uwtable
define internal void @parse_regular_expression_errors(ptr noundef %0, ptr noundef %1) #0 {
  %3 = alloca ptr, align 8
  %4 = alloca ptr, align 8
  %5 = alloca ptr, align 8
  %6 = alloca %struct.parse_regular_expression_error_data_t, align 8
  store ptr %0, ptr %3, align 8, !tbaa !7
  store ptr %1, ptr %4, align 8, !tbaa !424
  call void @llvm.lifetime.start.p0(i64 8, ptr %5) #15
  %7 = load ptr, ptr %4, align 8, !tbaa !424
  %8 = getelementptr inbounds nuw %struct.pm_regular_expression_node, ptr %7, i32 0, i32 4
  store ptr %8, ptr %5, align 8, !tbaa !57
  call void @llvm.lifetime.start.p0(i64 32, ptr %6) #15
  %9 = getelementptr inbounds nuw %struct.parse_regular_expression_error_data_t, ptr %6, i32 0, i32 0
  %10 = load ptr, ptr %3, align 8, !tbaa !7
  store ptr %10, ptr %9, align 8, !tbaa !779
  %11 = getelementptr inbounds nuw %struct.parse_regular_expression_error_data_t, ptr %6, i32 0, i32 1
  %12 = load ptr, ptr %4, align 8, !tbaa !424
  %13 = getelementptr inbounds nuw %struct.pm_regular_expression_node, ptr %12, i32 0, i32 0
  %14 = getelementptr inbounds nuw %struct.pm_node, ptr %13, i32 0, i32 3
  %15 = getelementptr inbounds nuw %struct.pm_location_t, ptr %14, i32 0, i32 0
  %16 = load ptr, ptr %15, align 8, !tbaa !781
  store ptr %16, ptr %11, align 8, !tbaa !782
  %17 = getelementptr inbounds nuw %struct.parse_regular_expression_error_data_t, ptr %6, i32 0, i32 2
  %18 = load ptr, ptr %4, align 8, !tbaa !424
  %19 = getelementptr inbounds nuw %struct.pm_regular_expression_node, ptr %18, i32 0, i32 0
  %20 = getelementptr inbounds nuw %struct.pm_node, ptr %19, i32 0, i32 3
  %21 = getelementptr inbounds nuw %struct.pm_location_t, ptr %20, i32 0, i32 1
  %22 = load ptr, ptr %21, align 8, !tbaa !783
  store ptr %22, ptr %17, align 8, !tbaa !784
  %23 = getelementptr inbounds nuw %struct.parse_regular_expression_error_data_t, ptr %6, i32 0, i32 3
  %24 = load ptr, ptr %5, align 8, !tbaa !57
  %25 = getelementptr inbounds nuw %struct.pm_string_t, ptr %24, i32 0, i32 2
  %26 = load i32, ptr %25, align 8, !tbaa !47
  %27 = icmp eq i32 %26, 1
  %28 = zext i1 %27 to i8
  store i8 %28, ptr %23, align 8, !tbaa !785
  %29 = getelementptr i8, ptr %6, i64 25
  call void @llvm.memset.p0.i64(ptr align 1 %29, i8 0, i64 7, i1 false)
  %30 = load ptr, ptr %3, align 8, !tbaa !7
  %31 = load ptr, ptr %5, align 8, !tbaa !57
  %32 = call ptr @pm_string_source(ptr noundef %31)
  %33 = load ptr, ptr %5, align 8, !tbaa !57
  %34 = call i64 @pm_string_length(ptr noundef %33)
  %35 = load ptr, ptr %4, align 8, !tbaa !424
  %36 = getelementptr inbounds nuw %struct.pm_node, ptr %35, i32 0, i32 1
  %37 = load i16, ptr %36, align 2, !tbaa !222
  %38 = zext i16 %37 to i32
  %39 = and i32 %38, 8
  %40 = icmp ne i32 %39, 0
  call void @pm_regexp_parse(ptr noundef %30, ptr noundef %32, i64 noundef %34, i1 noundef zeroext %40, ptr noundef null, ptr noundef null, ptr noundef @parse_regular_expression_error, ptr noundef %6)
  call void @llvm.lifetime.end.p0(i64 32, ptr %6) #15
  call void @llvm.lifetime.end.p0(i64 8, ptr %5) #15
  ret void
}