; Function Attrs: nounwind sspstrong uwtable
define internal fastcc void @parse_regular_expression_errors(ptr noundef %0, ptr noundef nonnull %1) unnamed_addr #1 {
  %3 = alloca %struct.parse_regular_expression_error_data_t, align 8
  %4 = getelementptr inbounds nuw i8, ptr %1, i64 72
  call void @llvm.lifetime.start.p0(i64 32, ptr nonnull %3) #31
  store ptr %0, ptr %3, align 8, !tbaa !554
  %5 = getelementptr inbounds nuw i8, ptr %3, i64 8
  %6 = getelementptr inbounds nuw i8, ptr %1, i64 8
  %7 = load ptr, ptr %6, align 8, !tbaa !557
  store ptr %7, ptr %5, align 8, !tbaa !558
  %8 = getelementptr inbounds nuw i8, ptr %3, i64 16
  %9 = getelementptr inbounds nuw i8, ptr %1, i64 16
  %10 = load ptr, ptr %9, align 8, !tbaa !559
  store ptr %10, ptr %8, align 8, !tbaa !560
  %11 = getelementptr inbounds nuw i8, ptr %3, i64 24
  %12 = getelementptr inbounds nuw i8, ptr %1, i64 88
  %13 = load i32, ptr %12, align 8, !tbaa !561
  %14 = icmp eq i32 %13, 1
  %15 = zext i1 %14 to i8
  store i8 %15, ptr %11, align 8, !tbaa !562
  %16 = getelementptr inbounds nuw i8, ptr %3, i64 25
  call void @llvm.memset.p0.i64(ptr noundef nonnull align 1 dereferenceable(7) %16, i8 0, i64 7, i1 false)
  %17 = tail call ptr @pm_string_source(ptr noundef nonnull %4) #31
  %18 = tail call i64 @pm_string_length(ptr noundef nonnull %4) #31
  %19 = getelementptr inbounds nuw i8, ptr %1, i64 2
  %20 = load i16, ptr %19, align 2, !tbaa !114
  %21 = and i16 %20, 8
  %22 = icmp ne i16 %21, 0
  call void @pm_regexp_parse(ptr noundef %0, ptr noundef %17, i64 noundef %18, i1 noundef zeroext %22, ptr noundef null, ptr noundef null, ptr noundef nonnull @parse_regular_expression_error, ptr noundef nonnull %3) #31
  call void @llvm.lifetime.end.p0(i64 32, ptr nonnull %3) #31
  ret void
}